target datalayout = "e-m:e-p270:32:32-p271:32:32-p272:64:64-i64:64-i128:128-f80:128-n8:16:32:64-S128"
target triple = "x86_64-pc-linux-gnu"

%struct.Model = type { [257 x i16], [257 x i16], [257 x i8], i32, i32, i32 }
%struct.GetBitContext = type { ptr, ptr, i32, i32, i32 }
%struct.ArithCoder = type { i32, i32, i32, i32, %union.anon.1, ptr, ptr }
%union.anon.1 = type { ptr }

; Function Attrs: inlinehint nounwind uwtable
define internal i32 @get_bits_count(ptr noundef %0) #4 {
  %2 = alloca ptr, align 8
  store ptr %0, ptr %2, align 8, !tbaa !63
  %3 = load ptr, ptr %2, align 8, !tbaa !63
  %4 = getelementptr inbounds nuw %struct.GetBitContext, ptr %3, i32 0, i32 2
  %5 = load i32, ptr %4, align 8, !tbaa !83
  ret i32 %5
}

; Function Attrs: inlinehint nounwind uwtable
define internal i32 @get_bits1(ptr noundef %0) #4 {
  %2 = alloca ptr, align 8
  %3 = alloca i32, align 4
  %4 = alloca i8, align 1
  store ptr %0, ptr %2, align 8, !tbaa !63
  call void @llvm.lifetime.start.p0(i64 4, ptr %3) #7
  %5 = load ptr, ptr %2, align 8, !tbaa !63
  %6 = getelementptr inbounds nuw %struct.GetBitContext, ptr %5, i32 0, i32 2
  %7 = load i32, ptr %6, align 8, !tbaa !83
  store i32 %7, ptr %3, align 4, !tbaa !40
  call void @llvm.lifetime.start.p0(i64 1, ptr %4) #7
  %8 = load ptr, ptr %2, align 8, !tbaa !63
  %9 = getelementptr inbounds nuw %struct.GetBitContext, ptr %8, i32 0, i32 0
  %10 = load ptr, ptr %9, align 8, !tbaa !78
  %11 = load i32, ptr %3, align 4, !tbaa !40
  %12 = lshr i32 %11, 3
  %13 = zext i32 %12 to i64
  %14 = getelementptr inbounds nuw i8, ptr %10, i64 %13
  %15 = load i8, ptr %14, align 1, !tbaa !72
  store i8 %15, ptr %4, align 1, !tbaa !72
  %16 = load i32, ptr %3, align 4, !tbaa !40
  %17 = and i32 %16, 7
  %18 = load i8, ptr %4, align 1, !tbaa !72
  %19 = zext i8 %18 to i32
  %20 = shl i32 %19, %17
  %21 = trunc i32 %20 to i8
  store i8 %21, ptr %4, align 1, !tbaa !72
  %22 = load i8, ptr %4, align 1, !tbaa !72
  %23 = zext i8 %22 to i32
  %24 = ashr i32 %23, 7
  %25 = trunc i32 %24 to i8
  store i8 %25, ptr %4, align 1, !tbaa !72
  %26 = load ptr, ptr %2, align 8, !tbaa !63
  %27 = getelementptr inbounds nuw %struct.GetBitContext, ptr %26, i32 0, i32 2
  %28 = load i32, ptr %27, align 8, !tbaa !83
  %29 = load ptr, ptr %2, align 8, !tbaa !63
  %30 = getelementptr inbounds nuw %struct.GetBitContext, ptr %29, i32 0, i32 4
  %31 = load i32, ptr %30, align 8, !tbaa !81
  %32 = icmp slt i32 %28, %31
  br i1 %32, label %33, label %36

33:                                               ; preds = %1
  %34 = load i32, ptr %3, align 4, !tbaa !40
  %35 = add i32 %34, 1
  store i32 %35, ptr %3, align 4, !tbaa !40
  br label %36

36:                                               ; preds = %33, %1
  %37 = load i32, ptr %3, align 4, !tbaa !40
  %38 = load ptr, ptr %2, align 8, !tbaa !63
  %39 = getelementptr inbounds nuw %struct.GetBitContext, ptr %38, i32 0, i32 2
  store i32 %37, ptr %39, align 8, !tbaa !83
  %40 = load i8, ptr %4, align 1, !tbaa !72
  %41 = zext i8 %40 to i32
  call void @llvm.lifetime.end.p0(i64 1, ptr %4) #7
  call void @llvm.lifetime.end.p0(i64 4, ptr %3) #7
  ret i32 %41
}

; Function Attrs: inlinehint nounwind uwtable
define internal i32 @get_bits_left(ptr noundef %0) #4 {
  %2 = alloca ptr, align 8
  store ptr %0, ptr %2, align 8, !tbaa !63
  %3 = load ptr, ptr %2, align 8, !tbaa !63
  %4 = getelementptr inbounds nuw %struct.GetBitContext, ptr %3, i32 0, i32 3
  %5 = load i32, ptr %4, align 4, !tbaa !80
  %6 = load ptr, ptr %2, align 8, !tbaa !63
  %7 = call i32 @get_bits_count(ptr noundef %6)
  %8 = sub nsw i32 %5, %7
  ret i32 %8
}

; Function Attrs: nounwind uwtable
define internal void @arith_normalise(ptr noundef %0) #1 {
  %2 = alloca ptr, align 8
  store ptr %0, ptr %2, align 8, !tbaa !65
  br label %3

3:                                                ; preds = %79, %1
  %4 = load ptr, ptr %2, align 8, !tbaa !65
  %5 = getelementptr inbounds nuw %struct.ArithCoder, ptr %4, i32 0, i32 1
  %6 = load i32, ptr %5, align 4, !tbaa !69
  %7 = icmp sge i32 %6, 32768
  br i1 %7, label %8, label %52

8:                                                ; preds = %3
  %9 = load ptr, ptr %2, align 8, !tbaa !65
  %10 = getelementptr inbounds nuw %struct.ArithCoder, ptr %9, i32 0, i32 0
  %11 = load i32, ptr %10, align 8, !tbaa !67
  %12 = icmp slt i32 %11, 32768
  br i1 %12, label %13, label %38

13:                                               ; preds = %8
  %14 = load ptr, ptr %2, align 8, !tbaa !65
  %15 = getelementptr inbounds nuw %struct.ArithCoder, ptr %14, i32 0, i32 0
  %16 = load i32, ptr %15, align 8, !tbaa !67
  %17 = icmp sge i32 %16, 16384
  br i1 %17, label %18, label %36

18:                                               ; preds = %13
  %19 = load ptr, ptr %2, align 8, !tbaa !65
  %20 = getelementptr inbounds nuw %struct.ArithCoder, ptr %19, i32 0, i32 1
  %21 = load i32, ptr %20, align 4, !tbaa !69
  %22 = icmp slt i32 %21, 49152
  br i1 %22, label %23, label %36

23:                                               ; preds = %18
  %24 = load ptr, ptr %2, align 8, !tbaa !65
  %25 = getelementptr inbounds nuw %struct.ArithCoder, ptr %24, i32 0, i32 2
  %26 = load i32, ptr %25, align 8, !tbaa !70
  %27 = sub nsw i32 %26, 16384
  store i32 %27, ptr %25, align 8, !tbaa !70
  %28 = load ptr, ptr %2, align 8, !tbaa !65
  %29 = getelementptr inbounds nuw %struct.ArithCoder, ptr %28, i32 0, i32 0
  %30 = load i32, ptr %29, align 8, !tbaa !67
  %31 = sub nsw i32 %30, 16384
  store i32 %31, ptr %29, align 8, !tbaa !67
  %32 = load ptr, ptr %2, align 8, !tbaa !65
  %33 = getelementptr inbounds nuw %struct.ArithCoder, ptr %32, i32 0, i32 1
  %34 = load i32, ptr %33, align 4, !tbaa !69
  %35 = sub nsw i32 %34, 16384
  store i32 %35, ptr %33, align 4, !tbaa !69
  br label %37

36:                                               ; preds = %18, %13
  ret void

37:                                               ; preds = %23
  br label %51

38:                                               ; preds = %8
  %39 = load ptr, ptr %2, align 8, !tbaa !65
  %40 = getelementptr inbounds nuw %struct.ArithCoder, ptr %39, i32 0, i32 2
  %41 = load i32, ptr %40, align 8, !tbaa !70
  %42 = sub nsw i32 %41, 32768
  store i32 %42, ptr %40, align 8, !tbaa !70
  %43 = load ptr, ptr %2, align 8, !tbaa !65
  %44 = getelementptr inbounds nuw %struct.ArithCoder, ptr %43, i32 0, i32 0
  %45 = load i32, ptr %44, align 8, !tbaa !67
  %46 = sub nsw i32 %45, 32768
  store i32 %46, ptr %44, align 8, !tbaa !67
  %47 = load ptr, ptr %2, align 8, !tbaa !65
  %48 = getelementptr inbounds nuw %struct.ArithCoder, ptr %47, i32 0, i32 1
  %49 = load i32, ptr %48, align 4, !tbaa !69
  %50 = sub nsw i32 %49, 32768
  store i32 %50, ptr %48, align 4, !tbaa !69
  br label %51

51:                                               ; preds = %38, %37
  br label %52

52:                                               ; preds = %51, %3
  %53 = load ptr, ptr %2, align 8, !tbaa !65
  %54 = getelementptr inbounds nuw %struct.ArithCoder, ptr %53, i32 0, i32 2
  %55 = load i32, ptr %54, align 8, !tbaa !70
  %56 = shl i32 %55, 1
  store i32 %56, ptr %54, align 8, !tbaa !70
  %57 = load ptr, ptr %2, align 8, !tbaa !65
  %58 = getelementptr inbounds nuw %struct.ArithCoder, ptr %57, i32 0, i32 0
  %59 = load i32, ptr %58, align 8, !tbaa !67
  %60 = shl i32 %59, 1
  store i32 %60, ptr %58, align 8, !tbaa !67
  %61 = load ptr, ptr %2, align 8, !tbaa !65
  %62 = getelementptr inbounds nuw %struct.ArithCoder, ptr %61, i32 0, i32 1
  %63 = load i32, ptr %62, align 4, !tbaa !69
  %64 = shl i32 %63, 1
  store i32 %64, ptr %62, align 4, !tbaa !69
  %65 = load ptr, ptr %2, align 8, !tbaa !65
  %66 = getelementptr inbounds nuw %struct.ArithCoder, ptr %65, i32 0, i32 1
  %67 = load i32, ptr %66, align 4, !tbaa !69
  %68 = or i32 %67, 1
  store i32 %68, ptr %66, align 4, !tbaa !69
  %69 = load ptr, ptr %2, align 8, !tbaa !65
  %70 = getelementptr inbounds nuw %struct.ArithCoder, ptr %69, i32 0, i32 4
  %71 = load ptr, ptr %70, align 8, !tbaa !72
  %72 = call i32 @get_bits_left(ptr noundef %71)
  %73 = icmp slt i32 %72, 1
  br i1 %73, label %74, label %79

74:                                               ; preds = %52
  %75 = load ptr, ptr %2, align 8, !tbaa !65
  %76 = getelementptr inbounds nuw %struct.ArithCoder, ptr %75, i32 0, i32 3
  %77 = load i32, ptr %76, align 4, !tbaa !71
  %78 = add nsw i32 %77, 1
  store i32 %78, ptr %76, align 4, !tbaa !71
  br label %79

79:                                               ; preds = %74, %52
  %80 = load ptr, ptr %2, align 8, !tbaa !65
  %81 = getelementptr inbounds nuw %struct.ArithCoder, ptr %80, i32 0, i32 4
  %82 = load ptr, ptr %81, align 8, !tbaa !72
  %83 = call i32 @get_bits1(ptr noundef %82)
  %84 = load ptr, ptr %2, align 8, !tbaa !65
  %85 = getelementptr inbounds nuw %struct.ArithCoder, ptr %84, i32 0, i32 2
  %86 = load i32, ptr %85, align 8, !tbaa !70
  %87 = or i32 %86, %83
  store i32 %87, ptr %85, align 8, !tbaa !70
  br label %3
}

; Function Attrs: nounwind uwtable
define internal i32 @arith_get_prob(ptr noundef %0, ptr noundef %1) #1 {
  %3 = alloca ptr, align 8
  %4 = alloca ptr, align 8
  %5 = alloca i32, align 4
  %6 = alloca i32, align 4
  %7 = alloca i32, align 4
  store ptr %0, ptr %3, align 8, !tbaa !65
  store ptr %1, ptr %4, align 8, !tbaa !86
  call void @llvm.lifetime.start.p0(i64 4, ptr %5) #7
  %8 = load ptr, ptr %3, align 8, !tbaa !65
  %9 = getelementptr inbounds nuw %struct.ArithCoder, ptr %8, i32 0, i32 1
  %10 = load i32, ptr %9, align 4, !tbaa !69
  %11 = load ptr, ptr %3, align 8, !tbaa !65
  %12 = getelementptr inbounds nuw %struct.ArithCoder, ptr %11, i32 0, i32 0
  %13 = load i32, ptr %12, align 8, !tbaa !67
  %14 = sub nsw i32 %10, %13
  %15 = add nsw i32 %14, 1
  store i32 %15, ptr %5, align 4, !tbaa !40
  call void @llvm.lifetime.start.p0(i64 4, ptr %6) #7
  %16 = load ptr, ptr %3, align 8, !tbaa !65
  %17 = getelementptr inbounds nuw %struct.ArithCoder, ptr %16, i32 0, i32 2
  %18 = load i32, ptr %17, align 8, !tbaa !70
  %19 = load ptr, ptr %3, align 8, !tbaa !65
  %20 = getelementptr inbounds nuw %struct.ArithCoder, ptr %19, i32 0, i32 0
  %21 = load i32, ptr %20, align 8, !tbaa !67
  %22 = sub nsw i32 %18, %21
  %23 = add nsw i32 %22, 1
  %24 = load ptr, ptr %4, align 8, !tbaa !86
  %25 = getelementptr inbounds i16, ptr %24, i64 0
  %26 = load i16, ptr %25, align 2, !tbaa !87
  %27 = sext i16 %26 to i32
  %28 = mul nsw i32 %23, %27
  %29 = sub nsw i32 %28, 1
  %30 = load i32, ptr %5, align 4, !tbaa !40
  %31 = sdiv i32 %29, %30
  store i32 %31, ptr %6, align 4, !tbaa !40
  call void @llvm.lifetime.start.p0(i64 4, ptr %7) #7
  store i32 1, ptr %7, align 4, !tbaa !40
  br label %32

32:                                               ; preds = %41, %2
  %33 = load ptr, ptr %4, align 8, !tbaa !86
  %34 = load i32, ptr %7, align 4, !tbaa !40
  %35 = sext i32 %34 to i64
  %36 = getelementptr inbounds i16, ptr %33, i64 %35
  %37 = load i16, ptr %36, align 2, !tbaa !87
  %38 = sext i16 %37 to i32
  %39 = load i32, ptr %6, align 4, !tbaa !40
  %40 = icmp sgt i32 %38, %39
  br i1 %40, label %41, label %44

41:                                               ; preds = %32
  %42 = load i32, ptr %7, align 4, !tbaa !40
  %43 = add nsw i32 %42, 1
  store i32 %43, ptr %7, align 4, !tbaa !40
  br label %32, !llvm.loop !89

44:                                               ; preds = %32
  %45 = load i32, ptr %5, align 4, !tbaa !40
  %46 = load ptr, ptr %4, align 8, !tbaa !86
  %47 = load i32, ptr %7, align 4, !tbaa !40
  %48 = sub nsw i32 %47, 1
  %49 = sext i32 %48 to i64
  %50 = getelementptr inbounds i16, ptr %46, i64 %49
  %51 = load i16, ptr %50, align 2, !tbaa !87
  %52 = sext i16 %51 to i32
  %53 = mul nsw i32 %45, %52
  %54 = load ptr, ptr %4, align 8, !tbaa !86
  %55 = getelementptr inbounds i16, ptr %54, i64 0
  %56 = load i16, ptr %55, align 2, !tbaa !87
  %57 = sext i16 %56 to i32
  %58 = sdiv i32 %53, %57
  %59 = load ptr, ptr %3, align 8, !tbaa !65
  %60 = getelementptr inbounds nuw %struct.ArithCoder, ptr %59, i32 0, i32 0
  %61 = load i32, ptr %60, align 8, !tbaa !67
  %62 = add nsw i32 %58, %61
  %63 = sub nsw i32 %62, 1
  %64 = load ptr, ptr %3, align 8, !tbaa !65
  %65 = getelementptr inbounds nuw %struct.ArithCoder, ptr %64, i32 0, i32 1
  store i32 %63, ptr %65, align 4, !tbaa !69
  %66 = load i32, ptr %5, align 4, !tbaa !40
  %67 = load ptr, ptr %4, align 8, !tbaa !86
  %68 = load i32, ptr %7, align 4, !tbaa !40
  %69 = sext i32 %68 to i64
  %70 = getelementptr inbounds i16, ptr %67, i64 %69
  %71 = load i16, ptr %70, align 2, !tbaa !87
  %72 = sext i16 %71 to i32
  %73 = mul nsw i32 %66, %72
  %74 = load ptr, ptr %4, align 8, !tbaa !86
  %75 = getelementptr inbounds i16, ptr %74, i64 0
  %76 = load i16, ptr %75, align 2, !tbaa !87
  %77 = sext i16 %76 to i32
  %78 = sdiv i32 %73, %77
  %79 = load ptr, ptr %3, align 8, !tbaa !65
  %80 = getelementptr inbounds nuw %struct.ArithCoder, ptr %79, i32 0, i32 0
  %81 = load i32, ptr %80, align 8, !tbaa !67
  %82 = add nsw i32 %81, %78
  store i32 %82, ptr %80, align 8, !tbaa !67
  %83 = load i32, ptr %7, align 4, !tbaa !40
  call void @llvm.lifetime.end.p0(i64 4, ptr %7) #7
  call void @llvm.lifetime.end.p0(i64 4, ptr %6) #7
  call void @llvm.lifetime.end.p0(i64 4, ptr %5) #7
  ret i32 %83
}

; Function Attrs: nounwind uwtable
define internal i32 @arith_get_model_sym(ptr noundef %0, ptr noundef %1) #1 {
  %3 = alloca ptr, align 8
  %4 = alloca ptr, align 8
  %5 = alloca i32, align 4
  %6 = alloca i32, align 4
  store ptr %0, ptr %3, align 8, !tbaa !65
  store ptr %1, ptr %4, align 8, !tbaa !84
  call void @llvm.lifetime.start.p0(i64 4, ptr %5) #7
  call void @llvm.lifetime.start.p0(i64 4, ptr %6) #7
  %7 = load ptr, ptr %3, align 8, !tbaa !65
  %8 = load ptr, ptr %4, align 8, !tbaa !84
  %9 = getelementptr inbounds nuw %struct.Model, ptr %8, i32 0, i32 0
  %10 = getelementptr inbounds [257 x i16], ptr %9, i64 0, i64 0
  %11 = call i32 @arith_get_prob(ptr noundef %7, ptr noundef %10)
  store i32 %11, ptr %5, align 4, !tbaa !40
  %12 = load ptr, ptr %4, align 8, !tbaa !84
  %13 = getelementptr inbounds nuw %struct.Model, ptr %12, i32 0, i32 2
  %14 = load i32, ptr %5, align 4, !tbaa !40
  %15 = sext i32 %14 to i64
  %16 = getelementptr inbounds [257 x i8], ptr %13, i64 0, i64 %15
  %17 = load i8, ptr %16, align 1, !tbaa !72
  %18 = zext i8 %17 to i32
  store i32 %18, ptr %6, align 4, !tbaa !40
  %19 = load ptr, ptr %4, align 8, !tbaa !84
  %20 = load i32, ptr %5, align 4, !tbaa !40
  call void @ff_mss12_model_update(ptr noundef %19, i32 noundef %20)
  %21 = load ptr, ptr %3, align 8, !tbaa !65
  call void @arith_normalise(ptr noundef %21)
  %22 = load i32, ptr %6, align 4, !tbaa !40
  call void @llvm.lifetime.end.p0(i64 4, ptr %6) #7
  call void @llvm.lifetime.end.p0(i64 4, ptr %5) #7
  ret i32 %22
}