; Function Attrs: nounwind uwtable
define internal range(i32 0, 256) i32 @arith_get_model_sym(ptr noundef captures(none) %0, ptr noundef %1) #1 {
  %3 = getelementptr inbounds nuw i8, ptr %0, i64 4
  %4 = load i32, ptr %3, align 4, !tbaa !48
  %5 = load i32, ptr %0, align 8, !tbaa !46
  %6 = sub nsw i32 %4, %5
  %7 = add nsw i32 %6, 1
  %8 = getelementptr inbounds nuw i8, ptr %0, i64 8
  %9 = load i32, ptr %8, align 8, !tbaa !51
  %reass.sub = sub i32 %9, %5
  %10 = add i32 %reass.sub, 1
  %11 = load i16, ptr %1, align 2, !tbaa !72
  %12 = sext i16 %11 to i32
  %13 = mul nsw i32 %10, %12
  %14 = add nsw i32 %13, -1
  %15 = sdiv i32 %14, %7
  br label %16

16:                                               ; preds = %16, %2
  %indvars.iv.i = phi i64 [ %indvars.iv.next.i, %16 ], [ 1, %2 ]
  %17 = getelementptr inbounds nuw i16, ptr %1, i64 %indvars.iv.i
  %18 = load i16, ptr %17, align 2, !tbaa !72
  %19 = sext i16 %18 to i32
  %20 = icmp slt i32 %15, %19
  %indvars.iv.next.i = add nuw nsw i64 %indvars.iv.i, 1
  br i1 %20, label %16, label %arith_get_prob.exit, !llvm.loop !74

arith_get_prob.exit:                              ; preds = %16
  %21 = getelementptr inbounds nuw i16, ptr %1, i64 %indvars.iv.i
  %22 = trunc nuw nsw i64 %indvars.iv.i to i32
  %23 = getelementptr i8, ptr %21, i64 -2
  %24 = load i16, ptr %23, align 2, !tbaa !72
  %25 = sext i16 %24 to i32
  %26 = mul nsw i32 %7, %25
  %27 = sdiv i32 %26, %12
  %28 = add i32 %5, -1
  %29 = add i32 %28, %27
  store i32 %29, ptr %3, align 4, !tbaa !48
  %30 = mul nsw i32 %7, %19
  %31 = sdiv i32 %30, %12
  %32 = add nsw i32 %31, %5
  store i32 %32, ptr %0, align 8, !tbaa !46
  %33 = getelementptr inbounds nuw i8, ptr %1, i64 1028
  %sext = shl i64 %indvars.iv.i, 32
  %34 = ashr exact i64 %sext, 32
  %35 = getelementptr inbounds [257 x i8], ptr %33, i64 0, i64 %34
  %36 = load i8, ptr %35, align 1, !tbaa !49
  tail call void @ff_mss12_model_update(ptr noundef nonnull %1, i32 noundef %22) #7
  %.promoted.i = load i32, ptr %3, align 4, !tbaa !48
  %37 = getelementptr inbounds nuw i8, ptr %0, i64 16
  %38 = getelementptr inbounds nuw i8, ptr %0, i64 12
  br label %39

39:                                               ; preds = %72, %arith_get_prob.exit
  %40 = phi i32 [ %65, %72 ], [ %.promoted.i, %arith_get_prob.exit ]
  %41 = icmp sgt i32 %40, 32767
  br i1 %41, label %42, label %._crit_edge.i

._crit_edge.i:                                    ; preds = %39
  %.pre.i = load i32, ptr %8, align 8, !tbaa !51
  %.pre20.i = load i32, ptr %0, align 8, !tbaa !46
  br label %58

42:                                               ; preds = %39
  %43 = load i32, ptr %0, align 8, !tbaa !46
  %44 = icmp slt i32 %43, 32768
  br i1 %44, label %45, label %53

45:                                               ; preds = %42
  %46 = icmp sgt i32 %43, 16383
  %47 = icmp samesign ult i32 %40, 49152
  %or.cond.i = and i1 %47, %46
  br i1 %or.cond.i, label %48, label %arith_normalise.exit

48:                                               ; preds = %45
  %49 = load i32, ptr %8, align 8, !tbaa !51
  %50 = add nsw i32 %49, -16384
  %51 = add nsw i32 %43, -16384
  %52 = add nsw i32 %40, -16384
  br label %58

53:                                               ; preds = %42
  %54 = load i32, ptr %8, align 8, !tbaa !51
  %55 = add nsw i32 %54, -32768
  %56 = add nsw i32 %43, -32768
  %57 = add nsw i32 %40, -32768
  br label %58

58:                                               ; preds = %53, %48, %._crit_edge.i
  %59 = phi i32 [ %51, %48 ], [ %56, %53 ], [ %.pre20.i, %._crit_edge.i ]
  %60 = phi i32 [ %50, %48 ], [ %55, %53 ], [ %.pre.i, %._crit_edge.i ]
  %61 = phi i32 [ %52, %48 ], [ %57, %53 ], [ %40, %._crit_edge.i ]
  %62 = shl i32 %60, 1
  store i32 %62, ptr %8, align 8, !tbaa !51
  %63 = shl i32 %59, 1
  store i32 %63, ptr %0, align 8, !tbaa !46
  %64 = shl i32 %61, 1
  %65 = or disjoint i32 %64, 1
  store i32 %65, ptr %3, align 4, !tbaa !48
  %66 = load ptr, ptr %37, align 8, !tbaa !49
  %67 = getelementptr i8, ptr %66, i64 16
  %.val.i = load i32, ptr %67, align 8, !tbaa !50
  %68 = getelementptr i8, ptr %66, i64 20
  %.val19.i = load i32, ptr %68, align 4, !tbaa !43
  %.not.i = icmp sgt i32 %.val19.i, %.val.i
  br i1 %.not.i, label %72, label %69

69:                                               ; preds = %58
  %70 = load i32, ptr %38, align 4, !tbaa !52
  %71 = add nsw i32 %70, 1
  store i32 %71, ptr %38, align 4, !tbaa !52
  br label %72

72:                                               ; preds = %69, %58
  %73 = load ptr, ptr %66, align 8, !tbaa !41
  %74 = lshr i32 %.val.i, 3
  %75 = zext nneg i32 %74 to i64
  %76 = getelementptr inbounds nuw i8, ptr %73, i64 %75
  %77 = load i8, ptr %76, align 1, !tbaa !49
  %78 = getelementptr inbounds nuw i8, ptr %66, i64 24
  %79 = load i32, ptr %78, align 8, !tbaa !44
  %80 = icmp slt i32 %.val.i, %79
  %81 = zext i1 %80 to i32
  %spec.select.i.i = add i32 %.val.i, %81
  %82 = zext i8 %77 to i32
  %83 = and i32 %.val.i, 7
  %84 = shl nuw nsw i32 %82, %83
  %85 = lshr i32 %84, 7
  store i32 %spec.select.i.i, ptr %67, align 8, !tbaa !50
  %86 = and i32 %85, 1
  %87 = or disjoint i32 %86, %62
  store i32 %87, ptr %8, align 8, !tbaa !51
  br label %39

arith_normalise.exit:                             ; preds = %45
  %88 = zext i8 %36 to i32
  ret i32 %88
}